target datalayout = "e-m:e-p270:32:32-p271:32:32-p272:64:64-i64:64-i128:128-f80:128-n8:16:32:64-S128"
target triple = "x86_64-pc-linux-gnu"

%struct._AwtGraphicsConfigData = type { i32, i64, %struct.XVisualInfo, i32, ptr, ptr, ptr, i64, i32, i32, ptr, i32, ptr, ptr, i32, %struct.XRenderPictFormat }
%struct.XVisualInfo = type { ptr, i64, i32, i32, i32, i64, i64, i64, i32, i32 }
%struct.XRenderPictFormat = type { i64, i32, i32, %struct.XRenderDirectFormat, i64 }
%struct.XRenderDirectFormat = type { i16, i16, i16, i16, i16, i16, i16, i16 }
%struct._ColorData = type { ptr, i32, ptr, ptr, ptr, ptr, ptr, ptr, ptr, ptr, i32, i32 }

; Function Attrs: nounwind uwtable
define hidden void @cleanup_graphics_config_data(ptr noundef %0) #0 {
  %2 = alloca ptr, align 8
  store ptr %0, ptr %2, align 8
  %3 = load ptr, ptr %2, align 8
  %4 = getelementptr inbounds %struct._AwtGraphicsConfigData, ptr %3, i32 0, i32 4
  %5 = load ptr, ptr %4, align 8
  %6 = icmp ne ptr %5, null
  br i1 %6, label %7, label %13

7:                                                ; preds = %1
  %8 = load ptr, ptr %2, align 8
  %9 = getelementptr inbounds %struct._AwtGraphicsConfigData, ptr %8, i32 0, i32 4
  %10 = load ptr, ptr %9, align 8
  call void @free(ptr noundef %10) #7
  %11 = load ptr, ptr %2, align 8
  %12 = getelementptr inbounds %struct._AwtGraphicsConfigData, ptr %11, i32 0, i32 4
  store ptr null, ptr %12, align 8
  br label %13

13:                                               ; preds = %7, %1
  %14 = load ptr, ptr %2, align 8
  %15 = getelementptr inbounds %struct._AwtGraphicsConfigData, ptr %14, i32 0, i32 12
  %16 = load ptr, ptr %15, align 8
  %17 = icmp ne ptr %16, null
  br i1 %17, label %18, label %89

18:                                               ; preds = %13
  %19 = load ptr, ptr %2, align 8
  %20 = getelementptr inbounds %struct._AwtGraphicsConfigData, ptr %19, i32 0, i32 12
  %21 = load ptr, ptr %20, align 8
  %22 = getelementptr inbounds %struct._ColorData, ptr %21, i32 0, i32 5
  %23 = load ptr, ptr %22, align 8
  %24 = icmp ne ptr %23, null
  br i1 %24, label %25, label %31

25:                                               ; preds = %18
  %26 = load ptr, ptr %2, align 8
  %27 = getelementptr inbounds %struct._AwtGraphicsConfigData, ptr %26, i32 0, i32 12
  %28 = load ptr, ptr %27, align 8
  %29 = getelementptr inbounds %struct._ColorData, ptr %28, i32 0, i32 5
  %30 = load ptr, ptr %29, align 8
  call void @free(ptr noundef %30) #7
  br label %31

31:                                               ; preds = %25, %18
  %32 = load ptr, ptr %2, align 8
  %33 = getelementptr inbounds %struct._AwtGraphicsConfigData, ptr %32, i32 0, i32 12
  %34 = load ptr, ptr %33, align 8
  %35 = getelementptr inbounds %struct._ColorData, ptr %34, i32 0, i32 3
  %36 = load ptr, ptr %35, align 8
  %37 = icmp ne ptr %36, null
  br i1 %37, label %38, label %44

38:                                               ; preds = %31
  %39 = load ptr, ptr %2, align 8
  %40 = getelementptr inbounds %struct._AwtGraphicsConfigData, ptr %39, i32 0, i32 12
  %41 = load ptr, ptr %40, align 8
  %42 = getelementptr inbounds %struct._ColorData, ptr %41, i32 0, i32 3
  %43 = load ptr, ptr %42, align 8
  call void @free(ptr noundef %43) #7
  br label %44

44:                                               ; preds = %38, %31
  %45 = load ptr, ptr %2, align 8
  %46 = getelementptr inbounds %struct._AwtGraphicsConfigData, ptr %45, i32 0, i32 12
  %47 = load ptr, ptr %46, align 8
  %48 = getelementptr inbounds %struct._ColorData, ptr %47, i32 0, i32 2
  %49 = load ptr, ptr %48, align 8
  %50 = icmp ne ptr %49, null
  br i1 %50, label %51, label %57

51:                                               ; preds = %44
  %52 = load ptr, ptr %2, align 8
  %53 = getelementptr inbounds %struct._AwtGraphicsConfigData, ptr %52, i32 0, i32 12
  %54 = load ptr, ptr %53, align 8
  %55 = getelementptr inbounds %struct._ColorData, ptr %54, i32 0, i32 2
  %56 = load ptr, ptr %55, align 8
  call void @free(ptr noundef %56) #7
  br label %57

57:                                               ; preds = %51, %44
  %58 = load ptr, ptr %2, align 8
  %59 = getelementptr inbounds %struct._AwtGraphicsConfigData, ptr %58, i32 0, i32 12
  %60 = load ptr, ptr %59, align 8
  %61 = getelementptr inbounds %struct._ColorData, ptr %60, i32 0, i32 0
  %62 = load ptr, ptr %61, align 8
  %63 = icmp ne ptr %62, null
  br i1 %63, label %64, label %70

64:                                               ; preds = %57
  %65 = load ptr, ptr %2, align 8
  %66 = getelementptr inbounds %struct._AwtGraphicsConfigData, ptr %65, i32 0, i32 12
  %67 = load ptr, ptr %66, align 8
  %68 = getelementptr inbounds %struct._ColorData, ptr %67, i32 0, i32 0
  %69 = load ptr, ptr %68, align 8
  call void @free(ptr noundef %69) #7
  br label %70

70:                                               ; preds = %64, %57
  %71 = load ptr, ptr %2, align 8
  %72 = getelementptr inbounds %struct._AwtGraphicsConfigData, ptr %71, i32 0, i32 12
  %73 = load ptr, ptr %72, align 8
  %74 = getelementptr inbounds %struct._ColorData, ptr %73, i32 0, i32 4
  %75 = load ptr, ptr %74, align 8
  %76 = icmp ne ptr %75, null
  br i1 %76, label %77, label %83

77:                                               ; preds = %70
  %78 = load ptr, ptr %2, align 8
  %79 = getelementptr inbounds %struct._AwtGraphicsConfigData, ptr %78, i32 0, i32 12
  %80 = load ptr, ptr %79, align 8
  %81 = getelementptr inbounds %struct._ColorData, ptr %80, i32 0, i32 4
  %82 = load ptr, ptr %81, align 8
  call void @free(ptr noundef %82) #7
  br label %83

83:                                               ; preds = %77, %70
  %84 = load ptr, ptr %2, align 8
  %85 = getelementptr inbounds %struct._AwtGraphicsConfigData, ptr %84, i32 0, i32 12
  %86 = load ptr, ptr %85, align 8
  call void @free(ptr noundef %86) #7
  %87 = load ptr, ptr %2, align 8
  %88 = getelementptr inbounds %struct._AwtGraphicsConfigData, ptr %87, i32 0, i32 12
  store ptr null, ptr %88, align 8
  br label %89

89:                                               ; preds = %83, %13
  ret void
}