; Function Attrs: mustprogress nounwind willreturn uwtable
define hidden void @cleanup_graphics_config_data(ptr nocapture noundef %0) local_unnamed_addr #4 {
  %2 = getelementptr inbounds i8, ptr %0, i64 88
  %3 = load ptr, ptr %2, align 8
  %.not = icmp eq ptr %3, null
  br i1 %.not, label %5, label %4

4:                                                ; preds = %1
  tail call void @free(ptr noundef nonnull %3) #14
  store ptr null, ptr %2, align 8
  br label %5

5:                                                ; preds = %4, %1
  %6 = getelementptr inbounds i8, ptr %0, i64 144
  %7 = load ptr, ptr %6, align 8
  %.not22 = icmp eq ptr %7, null
  br i1 %.not22, label %33, label %8

8:                                                ; preds = %5
  %9 = getelementptr inbounds i8, ptr %7, i64 40
  %10 = load ptr, ptr %9, align 8
  %.not23 = icmp eq ptr %10, null
  br i1 %.not23, label %12, label %11

11:                                               ; preds = %8
  tail call void @free(ptr noundef nonnull %10) #14
  %.pre = load ptr, ptr %6, align 8
  br label %12

12:                                               ; preds = %11, %8
  %13 = phi ptr [ %.pre, %11 ], [ %7, %8 ]
  %14 = getelementptr inbounds i8, ptr %13, i64 24
  %15 = load ptr, ptr %14, align 8
  %.not24 = icmp eq ptr %15, null
  br i1 %.not24, label %17, label %16

16:                                               ; preds = %12
  tail call void @free(ptr noundef nonnull %15) #14
  %.pre28 = load ptr, ptr %6, align 8
  br label %17

17:                                               ; preds = %16, %12
  %18 = phi ptr [ %.pre28, %16 ], [ %13, %12 ]
  %19 = getelementptr inbounds i8, ptr %18, i64 16
  %20 = load ptr, ptr %19, align 8
  %.not25 = icmp eq ptr %20, null
  br i1 %.not25, label %22, label %21

21:                                               ; preds = %17
  tail call void @free(ptr noundef nonnull %20) #14
  %.pre29 = load ptr, ptr %6, align 8
  br label %22

22:                                               ; preds = %21, %17
  %23 = phi ptr [ %.pre29, %21 ], [ %18, %17 ]
  %24 = load ptr, ptr %23, align 8
  %.not26 = icmp eq ptr %24, null
  br i1 %.not26, label %26, label %25

25:                                               ; preds = %22
  tail call void @free(ptr noundef nonnull %24) #14
  %.pre30 = load ptr, ptr %6, align 8
  br label %26

26:                                               ; preds = %25, %22
  %27 = phi ptr [ %.pre30, %25 ], [ %23, %22 ]
  %28 = getelementptr inbounds i8, ptr %27, i64 32
  %29 = load ptr, ptr %28, align 8
  %.not27 = icmp eq ptr %29, null
  br i1 %.not27, label %31, label %30

30:                                               ; preds = %26
  tail call void @free(ptr noundef nonnull %29) #14
  %.pre31 = load ptr, ptr %6, align 8
  br label %31

31:                                               ; preds = %30, %26
  %32 = phi ptr [ %.pre31, %30 ], [ %27, %26 ]
  tail call void @free(ptr noundef %32) #14
  store ptr null, ptr %6, align 8
  br label %33

33:                                               ; preds = %31, %5
  ret void
}